target datalayout = "e-m:e-p270:32:32-p271:32:32-p272:64:64-i64:64-i128:128-f80:128-n8:16:32:64-S128"
target triple = "x86_64-pc-linux-gnu"

%struct.jpeg_decompress_struct = type { ptr, ptr, ptr, ptr, i32, i32, ptr, i32, i32, i32, i32, i32, i32, i32, double, i32, i32, i32, i32, i32, i32, i32, i32, i32, i32, i32, i32, i32, i32, i32, i32, i32, i32, ptr, i32, i32, i32, i32, i32, ptr, [4 x ptr], [4 x ptr], [4 x ptr], i32, ptr, i32, i32, [16 x i8], [16 x i8], [16 x i8], i32, i32, i8, i8, i8, i16, i16, i32, i8, i32, ptr, i32, i32, i32, i32, ptr, i32, [4 x ptr], i32, i32, i32, [10 x i32], i32, i32, i32, i32, i32, ptr, ptr, ptr, ptr, ptr, ptr, ptr, ptr, ptr, ptr, ptr }
%struct.jpeg_memory_mgr = type { ptr, ptr, ptr, ptr, ptr, ptr, ptr, ptr, ptr, ptr, ptr, i64, i64 }
%struct.my_post_controller = type { %struct.jpeg_d_post_controller, ptr, ptr, i32, i32, i32 }
%struct.jpeg_d_post_controller = type { ptr, ptr }
%struct.jpeg_upsampler = type { ptr, ptr, i32 }
%struct.jpeg_color_quantizer = type { ptr, ptr, ptr, ptr }

; Function Attrs: nounwind uwtable
define internal void @post_process_prepass(ptr noundef %0, ptr noundef %1, ptr noundef %2, i32 noundef %3, ptr noundef %4, ptr noundef %5, i32 noundef %6) #0 {
  %8 = alloca ptr, align 8
  %9 = alloca ptr, align 8
  %10 = alloca ptr, align 8
  %11 = alloca i32, align 4
  %12 = alloca ptr, align 8
  %13 = alloca ptr, align 8
  %14 = alloca i32, align 4
  %15 = alloca ptr, align 8
  %16 = alloca i32, align 4
  %17 = alloca i32, align 4
  store ptr %0, ptr %8, align 8
  store ptr %1, ptr %9, align 8
  store ptr %2, ptr %10, align 8
  store i32 %3, ptr %11, align 4
  store ptr %4, ptr %12, align 8
  store ptr %5, ptr %13, align 8
  store i32 %6, ptr %14, align 4
  %18 = load ptr, ptr %8, align 8
  %19 = getelementptr inbounds %struct.jpeg_decompress_struct, ptr %18, i32 0, i32 80
  %20 = load ptr, ptr %19, align 8
  store ptr %20, ptr %15, align 8
  %21 = load ptr, ptr %15, align 8
  %22 = getelementptr inbounds %struct.my_post_controller, ptr %21, i32 0, i32 5
  %23 = load i32, ptr %22, align 8
  %24 = icmp eq i32 %23, 0
  br i1 %24, label %25, label %44

25:                                               ; preds = %7
  %26 = load ptr, ptr %8, align 8
  %27 = getelementptr inbounds %struct.jpeg_decompress_struct, ptr %26, i32 0, i32 1
  %28 = load ptr, ptr %27, align 8
  %29 = getelementptr inbounds %struct.jpeg_memory_mgr, ptr %28, i32 0, i32 7
  %30 = load ptr, ptr %29, align 8
  %31 = load ptr, ptr %8, align 8
  %32 = load ptr, ptr %15, align 8
  %33 = getelementptr inbounds %struct.my_post_controller, ptr %32, i32 0, i32 1
  %34 = load ptr, ptr %33, align 8
  %35 = load ptr, ptr %15, align 8
  %36 = getelementptr inbounds %struct.my_post_controller, ptr %35, i32 0, i32 4
  %37 = load i32, ptr %36, align 4
  %38 = load ptr, ptr %15, align 8
  %39 = getelementptr inbounds %struct.my_post_controller, ptr %38, i32 0, i32 3
  %40 = load i32, ptr %39, align 8
  %41 = call ptr %30(ptr noundef %31, ptr noundef %34, i32 noundef %37, i32 noundef %40, i32 noundef 1)
  %42 = load ptr, ptr %15, align 8
  %43 = getelementptr inbounds %struct.my_post_controller, ptr %42, i32 0, i32 2
  store ptr %41, ptr %43, align 8
  br label %44

44:                                               ; preds = %25, %7
  %45 = load ptr, ptr %15, align 8
  %46 = getelementptr inbounds %struct.my_post_controller, ptr %45, i32 0, i32 5
  %47 = load i32, ptr %46, align 8
  store i32 %47, ptr %16, align 4
  %48 = load ptr, ptr %8, align 8
  %49 = getelementptr inbounds %struct.jpeg_decompress_struct, ptr %48, i32 0, i32 85
  %50 = load ptr, ptr %49, align 8
  %51 = getelementptr inbounds %struct.jpeg_upsampler, ptr %50, i32 0, i32 1
  %52 = load ptr, ptr %51, align 8
  %53 = load ptr, ptr %8, align 8
  %54 = load ptr, ptr %9, align 8
  %55 = load ptr, ptr %10, align 8
  %56 = load i32, ptr %11, align 4
  %57 = load ptr, ptr %15, align 8
  %58 = getelementptr inbounds %struct.my_post_controller, ptr %57, i32 0, i32 2
  %59 = load ptr, ptr %58, align 8
  %60 = load ptr, ptr %15, align 8
  %61 = getelementptr inbounds %struct.my_post_controller, ptr %60, i32 0, i32 5
  %62 = load ptr, ptr %15, align 8
  %63 = getelementptr inbounds %struct.my_post_controller, ptr %62, i32 0, i32 3
  %64 = load i32, ptr %63, align 8
  call void %52(ptr noundef %53, ptr noundef %54, ptr noundef %55, i32 noundef %56, ptr noundef %59, ptr noundef %61, i32 noundef %64)
  %65 = load ptr, ptr %15, align 8
  %66 = getelementptr inbounds %struct.my_post_controller, ptr %65, i32 0, i32 5
  %67 = load i32, ptr %66, align 8
  %68 = load i32, ptr %16, align 4
  %69 = icmp ugt i32 %67, %68
  br i1 %69, label %70, label %93

70:                                               ; preds = %44
  %71 = load ptr, ptr %15, align 8
  %72 = getelementptr inbounds %struct.my_post_controller, ptr %71, i32 0, i32 5
  %73 = load i32, ptr %72, align 8
  %74 = load i32, ptr %16, align 4
  %75 = sub i32 %73, %74
  store i32 %75, ptr %17, align 4
  %76 = load ptr, ptr %8, align 8
  %77 = getelementptr inbounds %struct.jpeg_decompress_struct, ptr %76, i32 0, i32 87
  %78 = load ptr, ptr %77, align 8
  %79 = getelementptr inbounds %struct.jpeg_color_quantizer, ptr %78, i32 0, i32 1
  %80 = load ptr, ptr %79, align 8
  %81 = load ptr, ptr %8, align 8
  %82 = load ptr, ptr %15, align 8
  %83 = getelementptr inbounds %struct.my_post_controller, ptr %82, i32 0, i32 2
  %84 = load ptr, ptr %83, align 8
  %85 = load i32, ptr %16, align 4
  %86 = zext i32 %85 to i64
  %87 = getelementptr inbounds ptr, ptr %84, i64 %86
  %88 = load i32, ptr %17, align 4
  call void %80(ptr noundef %81, ptr noundef %87, ptr noundef null, i32 noundef %88)
  %89 = load i32, ptr %17, align 4
  %90 = load ptr, ptr %13, align 8
  %91 = load i32, ptr %90, align 4
  %92 = add i32 %91, %89
  store i32 %92, ptr %90, align 4
  br label %93

93:                                               ; preds = %70, %44
  %94 = load ptr, ptr %15, align 8
  %95 = getelementptr inbounds %struct.my_post_controller, ptr %94, i32 0, i32 5
  %96 = load i32, ptr %95, align 8
  %97 = load ptr, ptr %15, align 8
  %98 = getelementptr inbounds %struct.my_post_controller, ptr %97, i32 0, i32 3
  %99 = load i32, ptr %98, align 8
  %100 = icmp uge i32 %96, %99
  br i1 %100, label %101, label %111

101:                                              ; preds = %93
  %102 = load ptr, ptr %15, align 8
  %103 = getelementptr inbounds %struct.my_post_controller, ptr %102, i32 0, i32 3
  %104 = load i32, ptr %103, align 8
  %105 = load ptr, ptr %15, align 8
  %106 = getelementptr inbounds %struct.my_post_controller, ptr %105, i32 0, i32 4
  %107 = load i32, ptr %106, align 4
  %108 = add i32 %107, %104
  store i32 %108, ptr %106, align 4
  %109 = load ptr, ptr %15, align 8
  %110 = getelementptr inbounds %struct.my_post_controller, ptr %109, i32 0, i32 5
  store i32 0, ptr %110, align 8
  br label %111

111:                                              ; preds = %101, %93
  ret void
}