; Function Attrs: nounwind uwtable
define internal void @post_process_prepass(ptr noundef %0, ptr noundef %1, ptr noundef %2, i32 noundef %3, ptr nocapture readnone %4, ptr nocapture noundef %5, i32 %6) #0 {
  %8 = getelementptr inbounds i8, ptr %0, i64 568
  %9 = load ptr, ptr %8, align 8
  %10 = getelementptr inbounds i8, ptr %9, i64 40
  %11 = load i32, ptr %10, align 8
  %12 = icmp eq i32 %11, 0
  br i1 %12, label %13, label %._crit_edge

._crit_edge:                                      ; preds = %7
  %.phi.trans.insert = getelementptr inbounds i8, ptr %9, i64 24
  %.pre34 = load ptr, ptr %.phi.trans.insert, align 8
  br label %26

13:                                               ; preds = %7
  %14 = getelementptr inbounds i8, ptr %0, i64 8
  %15 = load ptr, ptr %14, align 8
  %16 = getelementptr inbounds i8, ptr %15, i64 56
  %17 = load ptr, ptr %16, align 8
  %18 = getelementptr inbounds i8, ptr %9, i64 16
  %19 = load ptr, ptr %18, align 8
  %20 = getelementptr inbounds i8, ptr %9, i64 36
  %21 = load i32, ptr %20, align 4
  %22 = getelementptr inbounds i8, ptr %9, i64 32
  %23 = load i32, ptr %22, align 8
  %24 = tail call ptr %17(ptr noundef nonnull %0, ptr noundef %19, i32 noundef %21, i32 noundef %23, i32 noundef 1) #4
  %25 = getelementptr inbounds i8, ptr %9, i64 24
  store ptr %24, ptr %25, align 8
  %.pre = load i32, ptr %10, align 8
  br label %26

26:                                               ; preds = %._crit_edge, %13
  %27 = phi ptr [ %24, %13 ], [ %.pre34, %._crit_edge ]
  %28 = phi i32 [ %.pre, %13 ], [ %11, %._crit_edge ]
  %29 = getelementptr inbounds i8, ptr %0, i64 608
  %30 = load ptr, ptr %29, align 8
  %31 = getelementptr inbounds i8, ptr %30, i64 8
  %32 = load ptr, ptr %31, align 8
  %33 = getelementptr inbounds i8, ptr %9, i64 32
  %34 = load i32, ptr %33, align 8
  tail call void %32(ptr noundef nonnull %0, ptr noundef %1, ptr noundef %2, i32 noundef %3, ptr noundef %27, ptr noundef nonnull %10, i32 noundef %34) #4
  %35 = load i32, ptr %10, align 8
  %36 = icmp ugt i32 %35, %28
  br i1 %36, label %37, label %49

37:                                               ; preds = %26
  %38 = getelementptr inbounds i8, ptr %9, i64 24
  %39 = sub i32 %35, %28
  %40 = getelementptr inbounds i8, ptr %0, i64 624
  %41 = load ptr, ptr %40, align 8
  %42 = getelementptr inbounds i8, ptr %41, i64 8
  %43 = load ptr, ptr %42, align 8
  %44 = load ptr, ptr %38, align 8
  %45 = zext i32 %28 to i64
  %46 = getelementptr inbounds ptr, ptr %44, i64 %45
  tail call void %43(ptr noundef nonnull %0, ptr noundef %46, ptr noundef null, i32 noundef %39) #4
  %47 = load i32, ptr %5, align 4
  %48 = add i32 %47, %39
  store i32 %48, ptr %5, align 4
  %.pre35 = load i32, ptr %10, align 8
  br label %49

49:                                               ; preds = %37, %26
  %50 = phi i32 [ %.pre35, %37 ], [ %35, %26 ]
  %51 = load i32, ptr %33, align 8
  %.not = icmp ult i32 %50, %51
  br i1 %.not, label %56, label %52

52:                                               ; preds = %49
  %53 = getelementptr inbounds i8, ptr %9, i64 36
  %54 = load i32, ptr %53, align 4
  %55 = add i32 %54, %51
  store i32 %55, ptr %53, align 4
  store i32 0, ptr %10, align 8
  br label %56

56:                                               ; preds = %52, %49
  ret void
}